target datalayout = "e-m:e-p270:32:32-p271:32:32-p272:64:64-i64:64-i128:128-f80:128-n8:16:32:64-S128"
target triple = "x86_64-pc-linux-gnu"

@sane_ctype = external constant [256 x i8], align 16

; Function Attrs: nounwind uwtable
define internal i32 @parse_num(ptr noundef %0, ptr noundef %1) #0 {
  %3 = alloca i32, align 4
  %4 = alloca ptr, align 8
  %5 = alloca ptr, align 8
  %6 = alloca ptr, align 8
  %7 = alloca i32, align 4
  store ptr %0, ptr %4, align 8, !tbaa !11
  store ptr %1, ptr %5, align 8, !tbaa !218
  call void @llvm.lifetime.start.p0(i64 8, ptr %6) #12
  %8 = load ptr, ptr %4, align 8, !tbaa !11
  %9 = load i8, ptr %8, align 1, !tbaa !57
  %10 = zext i8 %9 to i64
  %11 = getelementptr inbounds nuw [256 x i8], ptr @sane_ctype, i64 0, i64 %10
  %12 = load i8, ptr %11, align 1, !tbaa !57
  %13 = zext i8 %12 to i32
  %14 = and i32 %13, 2
  %15 = icmp ne i32 %14, 0
  br i1 %15, label %17, label %16

16:                                               ; preds = %2
  store i32 0, ptr %3, align 4
  store i32 1, ptr %7, align 4
  br label %27

17:                                               ; preds = %2
  %18 = load ptr, ptr %4, align 8, !tbaa !11
  %19 = call i64 @strtoul(ptr noundef %18, ptr noundef %6, i32 noundef 10) #12
  %20 = load ptr, ptr %5, align 8, !tbaa !218
  store i64 %19, ptr %20, align 8, !tbaa !87
  %21 = load ptr, ptr %6, align 8, !tbaa !11
  %22 = load ptr, ptr %4, align 8, !tbaa !11
  %23 = ptrtoint ptr %21 to i64
  %24 = ptrtoint ptr %22 to i64
  %25 = sub i64 %23, %24
  %26 = trunc i64 %25 to i32
  store i32 %26, ptr %3, align 4
  store i32 1, ptr %7, align 4
  br label %27

27:                                               ; preds = %17, %16
  call void @llvm.lifetime.end.p0(i64 8, ptr %6) #12
  %28 = load i32, ptr %3, align 4
  ret i32 %28
}

; Function Attrs: nounwind uwtable
define internal i32 @parse_range(ptr noundef %0, i32 noundef %1, i32 noundef %2, ptr noundef %3, ptr noundef %4, ptr noundef %5) #0 {
  %7 = alloca i32, align 4
  %8 = alloca ptr, align 8
  %9 = alloca i32, align 4
  %10 = alloca i32, align 4
  %11 = alloca ptr, align 8
  %12 = alloca ptr, align 8
  %13 = alloca ptr, align 8
  %14 = alloca i32, align 4
  %15 = alloca i32, align 4
  %16 = alloca i32, align 4
  store ptr %0, ptr %8, align 8, !tbaa !11
  store i32 %1, ptr %9, align 4, !tbaa !39
  store i32 %2, ptr %10, align 4, !tbaa !39
  store ptr %3, ptr %11, align 8, !tbaa !11
  store ptr %4, ptr %12, align 8, !tbaa !218
  store ptr %5, ptr %13, align 8, !tbaa !218
  call void @llvm.lifetime.start.p0(i64 4, ptr %14) #12
  call void @llvm.lifetime.start.p0(i64 4, ptr %15) #12
  %17 = load i32, ptr %10, align 4, !tbaa !39
  %18 = icmp slt i32 %17, 0
  br i1 %18, label %23, label %19

19:                                               ; preds = %6
  %20 = load i32, ptr %10, align 4, !tbaa !39
  %21 = load i32, ptr %9, align 4, !tbaa !39
  %22 = icmp sge i32 %20, %21
  br i1 %22, label %23, label %24

23:                                               ; preds = %19, %6
  store i32 -1, ptr %7, align 4
  store i32 1, ptr %16, align 4
  br label %96

24:                                               ; preds = %19
  %25 = load i32, ptr %10, align 4, !tbaa !39
  %26 = load ptr, ptr %8, align 8, !tbaa !11
  %27 = sext i32 %25 to i64
  %28 = getelementptr inbounds i8, ptr %26, i64 %27
  store ptr %28, ptr %8, align 8, !tbaa !11
  %29 = load i32, ptr %10, align 4, !tbaa !39
  %30 = load i32, ptr %9, align 4, !tbaa !39
  %31 = sub nsw i32 %30, %29
  store i32 %31, ptr %9, align 4, !tbaa !39
  %32 = load ptr, ptr %8, align 8, !tbaa !11
  %33 = load ptr, ptr %12, align 8, !tbaa !218
  %34 = call i32 @parse_num(ptr noundef %32, ptr noundef %33)
  store i32 %34, ptr %14, align 4, !tbaa !39
  %35 = load i32, ptr %14, align 4, !tbaa !39
  %36 = icmp ne i32 %35, 0
  br i1 %36, label %38, label %37

37:                                               ; preds = %24
  store i32 -1, ptr %7, align 4
  store i32 1, ptr %16, align 4
  br label %96

38:                                               ; preds = %24
  %39 = load i32, ptr %14, align 4, !tbaa !39
  %40 = load i32, ptr %10, align 4, !tbaa !39
  %41 = add nsw i32 %40, %39
  store i32 %41, ptr %10, align 4, !tbaa !39
  %42 = load i32, ptr %14, align 4, !tbaa !39
  %43 = load ptr, ptr %8, align 8, !tbaa !11
  %44 = sext i32 %42 to i64
  %45 = getelementptr inbounds i8, ptr %43, i64 %44
  store ptr %45, ptr %8, align 8, !tbaa !11
  %46 = load i32, ptr %14, align 4, !tbaa !39
  %47 = load i32, ptr %9, align 4, !tbaa !39
  %48 = sub nsw i32 %47, %46
  store i32 %48, ptr %9, align 4, !tbaa !39
  %49 = load ptr, ptr %13, align 8, !tbaa !218
  store i64 1, ptr %49, align 8, !tbaa !87
  %50 = load ptr, ptr %8, align 8, !tbaa !11
  %51 = load i8, ptr %50, align 1, !tbaa !57
  %52 = sext i8 %51 to i32
  %53 = icmp eq i32 %52, 44
  br i1 %53, label %54, label %76

54:                                               ; preds = %38
  %55 = load ptr, ptr %8, align 8, !tbaa !11
  %56 = getelementptr inbounds i8, ptr %55, i64 1
  %57 = load ptr, ptr %13, align 8, !tbaa !218
  %58 = call i32 @parse_num(ptr noundef %56, ptr noundef %57)
  store i32 %58, ptr %14, align 4, !tbaa !39
  %59 = load i32, ptr %14, align 4, !tbaa !39
  %60 = icmp ne i32 %59, 0
  br i1 %60, label %62, label %61

61:                                               ; preds = %54
  store i32 -1, ptr %7, align 4
  store i32 1, ptr %16, align 4
  br label %96

62:                                               ; preds = %54
  %63 = load i32, ptr %14, align 4, !tbaa !39
  %64 = add nsw i32 %63, 1
  %65 = load i32, ptr %10, align 4, !tbaa !39
  %66 = add nsw i32 %65, %64
  store i32 %66, ptr %10, align 4, !tbaa !39
  %67 = load i32, ptr %14, align 4, !tbaa !39
  %68 = add nsw i32 %67, 1
  %69 = load ptr, ptr %8, align 8, !tbaa !11
  %70 = sext i32 %68 to i64
  %71 = getelementptr inbounds i8, ptr %69, i64 %70
  store ptr %71, ptr %8, align 8, !tbaa !11
  %72 = load i32, ptr %14, align 4, !tbaa !39
  %73 = add nsw i32 %72, 1
  %74 = load i32, ptr %9, align 4, !tbaa !39
  %75 = sub nsw i32 %74, %73
  store i32 %75, ptr %9, align 4, !tbaa !39
  br label %76

76:                                               ; preds = %62, %38
  %77 = load ptr, ptr %11, align 8, !tbaa !11
  %78 = call i64 @strlen(ptr noundef %77) #11
  %79 = trunc i64 %78 to i32
  store i32 %79, ptr %15, align 4, !tbaa !39
  %80 = load i32, ptr %15, align 4, !tbaa !39
  %81 = load i32, ptr %9, align 4, !tbaa !39
  %82 = icmp sgt i32 %80, %81
  br i1 %82, label %83, label %84

83:                                               ; preds = %76
  store i32 -1, ptr %7, align 4
  store i32 1, ptr %16, align 4
  br label %96

84:                                               ; preds = %76
  %85 = load ptr, ptr %8, align 8, !tbaa !11
  %86 = load ptr, ptr %11, align 8, !tbaa !11
  %87 = load i32, ptr %15, align 4, !tbaa !39
  %88 = sext i32 %87 to i64
  %89 = call i32 @memcmp(ptr noundef %85, ptr noundef %86, i64 noundef %88) #11
  %90 = icmp ne i32 %89, 0
  br i1 %90, label %91, label %92

91:                                               ; preds = %84
  store i32 -1, ptr %7, align 4
  store i32 1, ptr %16, align 4
  br label %96

92:                                               ; preds = %84
  %93 = load i32, ptr %10, align 4, !tbaa !39
  %94 = load i32, ptr %15, align 4, !tbaa !39
  %95 = add nsw i32 %93, %94
  store i32 %95, ptr %7, align 4
  store i32 1, ptr %16, align 4
  br label %96

96:                                               ; preds = %92, %91, %83, %61, %37, %23
  call void @llvm.lifetime.end.p0(i64 4, ptr %15) #12
  call void @llvm.lifetime.end.p0(i64 4, ptr %14) #12
  %97 = load i32, ptr %7, align 4
  ret i32 %97
}