; Function Attrs: mustprogress nofree nounwind willreturn uwtable
define internal fastcc i32 @parse_range(ptr noundef %0, i32 noundef range(i32 1, 0) %1, i32 noundef %2, ptr noundef readonly captures(none) %3, ptr noundef writeonly captures(none) %4, ptr noundef writeonly captures(none) %5) unnamed_addr #7 {
  %7 = alloca ptr, align 8
  %8 = alloca ptr, align 8
  %9 = icmp sgt i32 %2, -1
  %.not = icmp slt i32 %2, %1
  %or.cond = and i1 %9, %.not
  br i1 %or.cond, label %10, label %57

10:                                               ; preds = %6
  %11 = zext nneg i32 %2 to i64
  %12 = getelementptr inbounds nuw i8, ptr %0, i64 %11
  call void @llvm.lifetime.start.p0(i64 8, ptr nonnull %8) #21
  %13 = load i8, ptr %12, align 1, !tbaa !53
  %14 = zext i8 %13 to i64
  %15 = getelementptr inbounds nuw [256 x i8], ptr @sane_ctype, i64 0, i64 %14
  %16 = load i8, ptr %15, align 1, !tbaa !53
  %17 = and i8 %16, 2
  %.not.i = icmp eq i8 %17, 0
  br i1 %.not.i, label %parse_num.exit.thread, label %parse_num.exit

parse_num.exit.thread:                            ; preds = %10
  call void @llvm.lifetime.end.p0(i64 8, ptr nonnull %8) #21
  br label %57

parse_num.exit:                                   ; preds = %10
  %18 = call i64 @strtoul(ptr noundef nonnull %12, ptr noundef nonnull %8, i32 noundef 10) #21
  store i64 %18, ptr %4, align 8, !tbaa !138
  %19 = load ptr, ptr %8, align 8, !tbaa !32
  %20 = ptrtoint ptr %19 to i64
  %21 = ptrtoint ptr %12 to i64
  %22 = sub i64 %20, %21
  %23 = trunc i64 %22 to i32
  call void @llvm.lifetime.end.p0(i64 8, ptr nonnull %8) #21
  %.not43 = icmp eq i32 %23, 0
  br i1 %.not43, label %57, label %24

24:                                               ; preds = %parse_num.exit
  %25 = add i32 %2, %23
  %sext53 = shl i64 %22, 32
  %26 = ashr exact i64 %sext53, 32
  %27 = getelementptr inbounds i8, ptr %12, i64 %26
  %28 = sub i32 %1, %25
  store i64 1, ptr %5, align 8, !tbaa !138
  %29 = load i8, ptr %27, align 1, !tbaa !53
  %30 = icmp eq i8 %29, 44
  br i1 %30, label %31, label %50

31:                                               ; preds = %24
  %32 = getelementptr inbounds nuw i8, ptr %27, i64 1
  call void @llvm.lifetime.start.p0(i64 8, ptr nonnull %7) #21
  %33 = load i8, ptr %32, align 1, !tbaa !53
  %34 = zext i8 %33 to i64
  %35 = getelementptr inbounds nuw [256 x i8], ptr @sane_ctype, i64 0, i64 %34
  %36 = load i8, ptr %35, align 1, !tbaa !53
  %37 = and i8 %36, 2
  %.not.i46 = icmp eq i8 %37, 0
  br i1 %.not.i46, label %parse_num.exit48.thread, label %parse_num.exit48

parse_num.exit48.thread:                          ; preds = %31
  call void @llvm.lifetime.end.p0(i64 8, ptr nonnull %7) #21
  br label %57

parse_num.exit48:                                 ; preds = %31
  %38 = call i64 @strtoul(ptr noundef nonnull %32, ptr noundef nonnull %7, i32 noundef 10) #21
  store i64 %38, ptr %5, align 8, !tbaa !138
  %39 = load ptr, ptr %7, align 8, !tbaa !32
  %40 = ptrtoint ptr %39 to i64
  %41 = ptrtoint ptr %32 to i64
  %42 = sub i64 %40, %41
  %43 = trunc i64 %42 to i32
  call void @llvm.lifetime.end.p0(i64 8, ptr nonnull %7) #21
  %.not44 = icmp eq i32 %43, 0
  br i1 %.not44, label %57, label %44

44:                                               ; preds = %parse_num.exit48
  %45 = add nsw i32 %43, 1
  %46 = add nsw i32 %45, %25
  %47 = sext i32 %45 to i64
  %48 = getelementptr inbounds i8, ptr %27, i64 %47
  %49 = sub nsw i32 %28, %45
  br label %50

50:                                               ; preds = %44, %24
  %.037 = phi i32 [ %46, %44 ], [ %25, %24 ]
  %.036 = phi i32 [ %49, %44 ], [ %28, %24 ]
  %.035 = phi ptr [ %48, %44 ], [ %27, %24 ]
  %51 = tail call i64 @strlen(ptr noundef nonnull dereferenceable(1) %3) #22
  %52 = trunc i64 %51 to i32
  %53 = icmp slt i32 %.036, %52
  br i1 %53, label %57, label %54

54:                                               ; preds = %50
  %sext = shl i64 %51, 32
  %55 = ashr exact i64 %sext, 32
  %bcmp = tail call i32 @bcmp(ptr %.035, ptr nonnull %3, i64 %55)
  %.not45 = icmp eq i32 %bcmp, 0
  %56 = add nsw i32 %.037, %52
  %spec.select = select i1 %.not45, i32 %56, i32 -1
  br label %57

57:                                               ; preds = %parse_num.exit48.thread, %parse_num.exit.thread, %54, %50, %parse_num.exit48, %parse_num.exit, %6
  %.0 = phi i32 [ -1, %6 ], [ -1, %parse_num.exit ], [ -1, %parse_num.exit48 ], [ -1, %50 ], [ %spec.select, %54 ], [ -1, %parse_num.exit.thread ], [ -1, %parse_num.exit48.thread ]
  ret i32 %.0
}